; Function Attrs: nounwind uwtable
define void @cli_event_error_str(ptr noundef %0, ptr noundef %1) local_unnamed_addr #5 {
  %.not = icmp eq ptr %0, null
  br i1 %.not, label %event_string.exit, label %3

3:                                                ; preds = %2
  tail call void (ptr, ...) @cli_warnmsg(ptr noundef nonnull @.str.8, ptr noundef %1) #14
  %.not.i = icmp eq ptr %1, null
  %spec.store.select.i = select i1 %.not.i, ptr @.str.19, ptr %1
  %4 = getelementptr inbounds nuw i8, ptr %0, i64 28
  %5 = load i16, ptr %4, align 4
  %6 = lshr i16 %5, 8
  %trunc.i = trunc nuw i16 %6 to i8
  switch i8 %trunc.i, label %event_string.exit [
    i8 0, label %7
    i8 1, label %12
  ]

7:                                                ; preds = %3
  %8 = getelementptr inbounds nuw i8, ptr %0, i64 16
  store ptr %spec.store.select.i, ptr %8, align 8, !tbaa !17
  %9 = getelementptr inbounds nuw i8, ptr %0, i64 24
  %10 = load i32, ptr %9, align 8, !tbaa !18
  %11 = add i32 %10, 1
  store i32 %11, ptr %9, align 8, !tbaa !18
  br label %event_string.exit

12:                                               ; preds = %3
  %13 = getelementptr inbounds nuw i8, ptr %0, i64 24
  %14 = load i32, ptr %13, align 8, !tbaa !18
  %15 = shl i32 %14, 3
  %16 = add i32 %15, 8
  %17 = getelementptr inbounds nuw i8, ptr %0, i64 16
  %18 = load ptr, ptr %17, align 8, !tbaa !17
  %19 = zext i32 %16 to i64
  %20 = tail call ptr @cli_safer_realloc(ptr noundef %18, i64 noundef %19) #14
  %.not.i.i = icmp eq ptr %20, null
  br i1 %.not.i.i, label %21, label %29

21:                                               ; preds = %12
  %22 = getelementptr inbounds nuw i8, ptr %0, i64 32
  %23 = load i64, ptr %22, align 8, !tbaa !15
  %24 = add i64 %23, %19
  store i64 %24, ptr %22, align 8, !tbaa !15
  %25 = getelementptr inbounds nuw i8, ptr %0, i64 44
  %26 = load i32, ptr %25, align 4, !tbaa !16
  %27 = add i32 %26, 1
  store i32 %27, ptr %25, align 4, !tbaa !16
  %.not6.i.i.i = icmp eq i32 %16, 0
  br i1 %.not6.i.i.i, label %event_string.exit, label %28

28:                                               ; preds = %21
  tail call void (ptr, ...) @cli_errmsg(ptr noundef nonnull @.str.1, i32 noundef %16) #14
  br label %event_string.exit

29:                                               ; preds = %12
  %30 = ptrtoint ptr %spec.store.select.i to i64
  store ptr %20, ptr %17, align 8, !tbaa !17
  %31 = load i32, ptr %13, align 8, !tbaa !18
  %32 = zext i32 %31 to i64
  %33 = getelementptr inbounds nuw %union.ev_val, ptr %20, i64 %32
  store i64 %30, ptr %33, align 8, !tbaa !17
  %34 = load i32, ptr %13, align 8, !tbaa !18
  %35 = add i32 %34, 1
  store i32 %35, ptr %13, align 8, !tbaa !18
  br label %event_string.exit

event_string.exit:                                ; preds = %29, %28, %21, %7, %3, %2
  ret void
}